; Function Attrs: nounwind sspstrong uwtable
define dso_local noundef i64 @rb_class_new_instance(i32 noundef %0, ptr noundef %1, i64 noundef %2) local_unnamed_addr #2 {
  %4 = icmp eq i64 %2, 0
  %5 = and i64 %2, 7
  %6 = icmp ne i64 %5, 0
  %7 = or i1 %4, %6
  br i1 %7, label %rbimpl_RB_TYPE_P_fastpath.exit.thread.i.i, label %8, !prof !39

8:                                                ; preds = %3
  %9 = inttoptr i64 %2 to ptr
  %10 = load i64, ptr %9, align 8, !tbaa !24
  %11 = and i64 %10, 31
  %12 = icmp eq i64 %11, 2
  br i1 %12, label %rb_class_new_instance_kw.exit, label %rbimpl_RB_TYPE_P_fastpath.exit.thread.i.i, !prof !40

rbimpl_RB_TYPE_P_fastpath.exit.thread.i.i:        ; preds = %8, %3
  tail call void @rb_unexpected_type(i64 noundef %2, i32 noundef 2) #25
  unreachable

rb_class_new_instance_kw.exit:                    ; preds = %8
  %13 = tail call fastcc i64 @rb_class_alloc(i64 noundef %2)
  tail call void @rb_obj_call_init_kw(i64 noundef %13, i32 noundef %0, ptr noundef %1, i32 noundef 0) #23
  ret i64 %13
}